target datalayout = "e-m:e-p270:32:32-p271:32:32-p272:64:64-i64:64-i128:128-f80:128-n8:16:32:64-S128"
target triple = "x86_64-pc-linux-gnu"

%struct.AVFilterContext = type { ptr, ptr, ptr, ptr, ptr, i32, ptr, ptr, i32, ptr, ptr, i32, i32, ptr, ptr, ptr, ptr, i32, ptr, i32, i32 }
%struct.TestSourceContext = type { ptr, i32, i32, i32, i32, i32, %struct.AVRational, %struct.AVRational, i64, i64, %struct.AVRational, i32, i32, ptr, ptr, i32, i32, [4 x i8], i32, %struct.FFDrawContext, %struct.FFDrawColor, [4 x i8], [4 x i8], i32, i32, i32, i32, i32, i32, i32, i32, i32, i32, i32, i32, i32, i32, i32, i32, i32, i32, i32, ptr, ptr }
%struct.AVRational = type { i32, i32 }
%struct.FFDrawContext = type { ptr, i32, i32, [4 x i32], [4 x i8], [4 x i8], i8, i8, i32, i32, i32, [3 x [3 x double]] }
%struct.FFDrawColor = type { [4 x i8], [4 x %union.anon.2] }
%union.anon.2 = type { [4 x i32] }
%struct.AVFilterLink = type { ptr, ptr, ptr, ptr, i32, i32, i32, i32, %struct.AVRational, i32, i32, i32, %struct.AVChannelLayout, %struct.AVRational, ptr, i32, %struct.AVFilterFormatsConfig, %struct.AVFilterFormatsConfig }
%struct.AVChannelLayout = type { i32, i32, %union.anon.1, ptr }
%union.anon.1 = type { i64 }
%struct.AVFilterFormatsConfig = type { ptr, ptr, ptr, ptr, ptr }
%struct.FilterLink = type { %struct.AVFilterLink, ptr, i64, i64, i32, i32, i64, i64, i64, i64, %struct.AVRational, ptr }

@.str.33 = private unnamed_addr constant [36 x i8] c"Failed to initialize FFDrawContext\0A\00", align 1

; Function Attrs: inlinehint nounwind uwtable
define internal ptr @ff_filter_link(ptr noundef %0) #4 {
  %2 = alloca ptr, align 8
  store ptr %0, ptr %2, align 8, !tbaa !39
  %3 = load ptr, ptr %2, align 8, !tbaa !39
  ret ptr %3
}

; Function Attrs: nounwind uwtable
define internal i32 @config_props(ptr noundef %0) #1 {
  %2 = alloca ptr, align 8
  %3 = alloca ptr, align 8
  %4 = alloca ptr, align 8
  store ptr %0, ptr %2, align 8, !tbaa !39
  call void @llvm.lifetime.start.p0(i64 8, ptr %3) #15
  %5 = load ptr, ptr %2, align 8, !tbaa !39
  %6 = getelementptr inbounds nuw %struct.AVFilterLink, ptr %5, i32 0, i32 0
  %7 = load ptr, ptr %6, align 8, !tbaa !48
  %8 = getelementptr inbounds nuw %struct.AVFilterContext, ptr %7, i32 0, i32 9
  %9 = load ptr, ptr %8, align 8, !tbaa !9
  store ptr %9, ptr %3, align 8, !tbaa !22
  call void @llvm.lifetime.start.p0(i64 8, ptr %4) #15
  %10 = load ptr, ptr %2, align 8, !tbaa !39
  %11 = call ptr @ff_filter_link(ptr noundef %10)
  store ptr %11, ptr %4, align 8, !tbaa !81
  %12 = load ptr, ptr %3, align 8, !tbaa !22
  %13 = getelementptr inbounds nuw %struct.TestSourceContext, ptr %12, i32 0, i32 1
  %14 = load i32, ptr %13, align 8, !tbaa !46
  %15 = load ptr, ptr %2, align 8, !tbaa !39
  %16 = getelementptr inbounds nuw %struct.AVFilterLink, ptr %15, i32 0, i32 6
  store i32 %14, ptr %16, align 8, !tbaa !83
  %17 = load ptr, ptr %3, align 8, !tbaa !22
  %18 = getelementptr inbounds nuw %struct.TestSourceContext, ptr %17, i32 0, i32 2
  %19 = load i32, ptr %18, align 4, !tbaa !47
  %20 = load ptr, ptr %2, align 8, !tbaa !39
  %21 = getelementptr inbounds nuw %struct.AVFilterLink, ptr %20, i32 0, i32 7
  store i32 %19, ptr %21, align 4, !tbaa !84
  %22 = load ptr, ptr %2, align 8, !tbaa !39
  %23 = getelementptr inbounds nuw %struct.AVFilterLink, ptr %22, i32 0, i32 8
  %24 = load ptr, ptr %3, align 8, !tbaa !22
  %25 = getelementptr inbounds nuw %struct.TestSourceContext, ptr %24, i32 0, i32 10
  call void @llvm.memcpy.p0.p0.i64(ptr align 8 %23, ptr align 8 %25, i64 8, i1 false), !tbaa.struct !64
  %26 = load ptr, ptr %4, align 8, !tbaa !81
  %27 = getelementptr inbounds nuw %struct.FilterLink, ptr %26, i32 0, i32 10
  %28 = load ptr, ptr %3, align 8, !tbaa !22
  %29 = getelementptr inbounds nuw %struct.TestSourceContext, ptr %28, i32 0, i32 7
  call void @llvm.memcpy.p0.p0.i64(ptr align 8 %27, ptr align 4 %29, i64 8, i1 false), !tbaa.struct !64
  %30 = load ptr, ptr %2, align 8, !tbaa !39
  %31 = getelementptr inbounds nuw %struct.AVFilterLink, ptr %30, i32 0, i32 13
  %32 = load ptr, ptr %3, align 8, !tbaa !22
  %33 = getelementptr inbounds nuw %struct.TestSourceContext, ptr %32, i32 0, i32 6
  call void @llvm.memcpy.p0.p0.i64(ptr align 8 %31, ptr align 4 %33, i64 8, i1 false), !tbaa.struct !64
  call void @llvm.lifetime.end.p0(i64 8, ptr %4) #15
  call void @llvm.lifetime.end.p0(i64 8, ptr %3) #15
  ret i32 0
}

; Function Attrs: nounwind uwtable
define internal i32 @color_config_props(ptr noundef %0) #1 {
  %2 = alloca i32, align 4
  %3 = alloca ptr, align 8
  %4 = alloca ptr, align 8
  %5 = alloca ptr, align 8
  %6 = alloca i32, align 4
  %7 = alloca i32, align 4
  store ptr %0, ptr %3, align 8, !tbaa !39
  call void @llvm.lifetime.start.p0(i64 8, ptr %4) #15
  %8 = load ptr, ptr %3, align 8, !tbaa !39
  %9 = getelementptr inbounds nuw %struct.AVFilterLink, ptr %8, i32 0, i32 0
  %10 = load ptr, ptr %9, align 8, !tbaa !48
  store ptr %10, ptr %4, align 8, !tbaa !4
  call void @llvm.lifetime.start.p0(i64 8, ptr %5) #15
  %11 = load ptr, ptr %4, align 8, !tbaa !4
  %12 = getelementptr inbounds nuw %struct.AVFilterContext, ptr %11, i32 0, i32 9
  %13 = load ptr, ptr %12, align 8, !tbaa !9
  store ptr %13, ptr %5, align 8, !tbaa !22
  call void @llvm.lifetime.start.p0(i64 4, ptr %6) #15
  %14 = load ptr, ptr %5, align 8, !tbaa !22
  %15 = getelementptr inbounds nuw %struct.TestSourceContext, ptr %14, i32 0, i32 19
  %16 = load ptr, ptr %3, align 8, !tbaa !39
  %17 = getelementptr inbounds nuw %struct.AVFilterLink, ptr %16, i32 0, i32 5
  %18 = load i32, ptr %17, align 4, !tbaa !78
  %19 = load ptr, ptr %3, align 8, !tbaa !39
  %20 = getelementptr inbounds nuw %struct.AVFilterLink, ptr %19, i32 0, i32 9
  %21 = load i32, ptr %20, align 8, !tbaa !79
  %22 = load ptr, ptr %3, align 8, !tbaa !39
  %23 = getelementptr inbounds nuw %struct.AVFilterLink, ptr %22, i32 0, i32 10
  %24 = load i32, ptr %23, align 4, !tbaa !80
  %25 = call i32 @ff_draw_init2(ptr noundef %15, i32 noundef %18, i32 noundef %21, i32 noundef %24, i32 noundef 0)
  store i32 %25, ptr %6, align 4, !tbaa !36
  %26 = load i32, ptr %6, align 4, !tbaa !36
  %27 = icmp slt i32 %26, 0
  br i1 %27, label %28, label %31

28:                                               ; preds = %1
  %29 = load ptr, ptr %4, align 8, !tbaa !4
  call void (ptr, i32, ptr, ...) @av_log(ptr noundef %29, i32 noundef 16, ptr noundef @.str.33)
  %30 = load i32, ptr %6, align 4, !tbaa !36
  store i32 %30, ptr %2, align 4
  store i32 1, ptr %7, align 4
  br label %56

31:                                               ; preds = %1
  %32 = load ptr, ptr %5, align 8, !tbaa !22
  %33 = getelementptr inbounds nuw %struct.TestSourceContext, ptr %32, i32 0, i32 19
  %34 = load ptr, ptr %5, align 8, !tbaa !22
  %35 = getelementptr inbounds nuw %struct.TestSourceContext, ptr %34, i32 0, i32 20
  %36 = load ptr, ptr %5, align 8, !tbaa !22
  %37 = getelementptr inbounds nuw %struct.TestSourceContext, ptr %36, i32 0, i32 21
  %38 = getelementptr inbounds [4 x i8], ptr %37, i64 0, i64 0
  call void @ff_draw_color(ptr noundef %33, ptr noundef %35, ptr noundef %38)
  %39 = load ptr, ptr %5, align 8, !tbaa !22
  %40 = getelementptr inbounds nuw %struct.TestSourceContext, ptr %39, i32 0, i32 1
  %41 = load i32, ptr %40, align 8, !tbaa !46
  %42 = load ptr, ptr %5, align 8, !tbaa !22
  %43 = getelementptr inbounds nuw %struct.TestSourceContext, ptr %42, i32 0, i32 2
  %44 = load i32, ptr %43, align 4, !tbaa !47
  %45 = load ptr, ptr %4, align 8, !tbaa !4
  %46 = call i32 @av_image_check_size(i32 noundef %41, i32 noundef %44, i32 noundef 0, ptr noundef %45)
  %47 = icmp slt i32 %46, 0
  br i1 %47, label %48, label %49

48:                                               ; preds = %31
  store i32 -22, ptr %2, align 4
  store i32 1, ptr %7, align 4
  br label %56

49:                                               ; preds = %31
  %50 = load ptr, ptr %3, align 8, !tbaa !39
  %51 = call i32 @config_props(ptr noundef %50)
  store i32 %51, ptr %6, align 4, !tbaa !36
  %52 = icmp slt i32 %51, 0
  br i1 %52, label %53, label %55

53:                                               ; preds = %49
  %54 = load i32, ptr %6, align 4, !tbaa !36
  store i32 %54, ptr %2, align 4
  store i32 1, ptr %7, align 4
  br label %56

55:                                               ; preds = %49
  store i32 0, ptr %2, align 4
  store i32 1, ptr %7, align 4
  br label %56

56:                                               ; preds = %55, %53, %48, %28
  call void @llvm.lifetime.end.p0(i64 4, ptr %6) #15
  call void @llvm.lifetime.end.p0(i64 8, ptr %5) #15
  call void @llvm.lifetime.end.p0(i64 8, ptr %4) #15
  %57 = load i32, ptr %2, align 4
  ret i32 %57
}