; Function Attrs: nounwind uwtable
define internal range(i32 -2147483648, 1) i32 @color_config_props(ptr noundef captures(none) %0) #1 {
  %2 = load ptr, ptr %0, align 8, !tbaa !38
  %3 = getelementptr inbounds nuw i8, ptr %2, i64 72
  %4 = load ptr, ptr %3, align 8, !tbaa !4
  %5 = getelementptr inbounds nuw i8, ptr %4, i64 112
  %6 = getelementptr inbounds nuw i8, ptr %0, i64 36
  %7 = load i32, ptr %6, align 4, !tbaa !61
  %8 = getelementptr inbounds nuw i8, ptr %0, i64 56
  %9 = load i32, ptr %8, align 8, !tbaa !62
  %10 = getelementptr inbounds nuw i8, ptr %0, i64 60
  %11 = load i32, ptr %10, align 4, !tbaa !63
  %12 = tail call i32 @ff_draw_init2(ptr noundef nonnull %5, i32 noundef %7, i32 noundef %9, i32 noundef %11, i32 noundef 0) #20
  %13 = icmp slt i32 %12, 0
  br i1 %13, label %14, label %15

14:                                               ; preds = %1
  tail call void (ptr, i32, ptr, ...) @av_log(ptr noundef nonnull %2, i32 noundef 16, ptr noundef nonnull @.str.33) #20
  br label %43

15:                                               ; preds = %1
  %16 = getelementptr inbounds nuw i8, ptr %4, i64 240
  %17 = getelementptr inbounds nuw i8, ptr %4, i64 308
  tail call void @ff_draw_color(ptr noundef nonnull %5, ptr noundef nonnull %16, ptr noundef nonnull %17) #20
  %18 = getelementptr inbounds nuw i8, ptr %4, i64 8
  %19 = load i32, ptr %18, align 8, !tbaa !36
  %20 = getelementptr inbounds nuw i8, ptr %4, i64 12
  %21 = load i32, ptr %20, align 4, !tbaa !37
  %22 = tail call i32 @av_image_check_size(i32 noundef %19, i32 noundef %21, i32 noundef 0, ptr noundef nonnull %2) #20
  %23 = icmp slt i32 %22, 0
  br i1 %23, label %43, label %24

24:                                               ; preds = %15
  %25 = load ptr, ptr %0, align 8, !tbaa !38
  %26 = getelementptr inbounds nuw i8, ptr %25, i64 72
  %27 = load ptr, ptr %26, align 8, !tbaa !4
  %28 = getelementptr inbounds nuw i8, ptr %27, i64 8
  %29 = load i32, ptr %28, align 8, !tbaa !36
  %30 = getelementptr inbounds nuw i8, ptr %0, i64 40
  store i32 %29, ptr %30, align 8, !tbaa !64
  %31 = getelementptr inbounds nuw i8, ptr %27, i64 12
  %32 = load i32, ptr %31, align 4, !tbaa !37
  %33 = getelementptr inbounds nuw i8, ptr %0, i64 44
  store i32 %32, ptr %33, align 4, !tbaa !65
  %34 = getelementptr inbounds nuw i8, ptr %0, i64 48
  %35 = getelementptr inbounds nuw i8, ptr %27, i64 64
  %36 = load i64, ptr %35, align 8
  store i64 %36, ptr %34, align 8
  %37 = getelementptr inbounds nuw i8, ptr %0, i64 264
  %38 = getelementptr inbounds nuw i8, ptr %27, i64 36
  %39 = load i64, ptr %38, align 4
  store i64 %39, ptr %37, align 8
  %40 = getelementptr inbounds nuw i8, ptr %0, i64 96
  %41 = getelementptr inbounds nuw i8, ptr %27, i64 28
  %42 = load i64, ptr %41, align 4
  store i64 %42, ptr %40, align 8
  br label %43

43:                                               ; preds = %15, %24, %14
  %.0 = phi i32 [ %12, %14 ], [ 0, %24 ], [ -22, %15 ]
  ret i32 %.0
}